target datalayout = "e-m:e-p270:32:32-p271:32:32-p272:64:64-i64:64-i128:128-f80:128-n8:16:32:64-S128"
target triple = "x86_64-unknown-linux-gnu"

%"class.rocksdb::WriteController" = type { %"struct.std::atomic", %"struct.std::atomic", %"struct.std::atomic", i64, i64, i64, i64, %"class.std::unique_ptr.2" }
%"struct.std::atomic" = type { %"struct.std::__atomic_base" }
%"struct.std::__atomic_base" = type { i32 }
%"class.std::unique_ptr.2" = type { %"struct.std::__uniq_ptr_data.3" }
%"struct.std::__uniq_ptr_data.3" = type { %"class.std::__uniq_ptr_impl.4" }
%"class.std::__uniq_ptr_impl.4" = type { %"class.std::tuple.5" }
%"class.std::tuple.5" = type { %"struct.std::_Tuple_impl.6" }
%"struct.std::_Tuple_impl.6" = type { %"struct.std::_Head_base.9" }
%"struct.std::_Head_base.9" = type { ptr }
%"class.rocksdb::WriteControllerToken" = type { ptr, ptr }

@_ZTVN7rocksdb23CompactionPressureTokenE = unnamed_addr constant { [4 x ptr] } { [4 x ptr] [ptr null, ptr null, ptr @_ZN7rocksdb23CompactionPressureTokenD1Ev, ptr @_ZN7rocksdb23CompactionPressureTokenD0Ev] }, align 8

; Function Attrs: mustprogress nounwind uwtable
define linkonce_odr void @_ZN7rocksdb20WriteControllerTokenD2Ev(ptr noundef nonnull align 8 dereferenceable(16) %this) unnamed_addr #1 comdat align 2 {
entry:
  %this.addr = alloca ptr, align 8
  store ptr %this, ptr %this.addr, align 8
  ret void
}

; Function Attrs: mustprogress nounwind uwtable
define linkonce_odr noundef i32 @_ZNSt13__atomic_baseIiEmmEi(ptr noundef nonnull align 4 dereferenceable(4) %this, i32 noundef %0) #1 comdat align 2 {
entry:
  %this.addr.i = alloca ptr, align 8
  %__i.addr.i = alloca i32, align 4
  %__m.addr.i = alloca i32, align 4
  %.atomictmp.i = alloca i32, align 4
  %atomic-temp.i = alloca i32, align 4
  %this.addr = alloca ptr, align 8
  %.addr = alloca i32, align 4
  store ptr %this, ptr %this.addr, align 8
  store i32 %0, ptr %.addr, align 4
  %this1 = load ptr, ptr %this.addr, align 8
  store ptr %this1, ptr %this.addr.i, align 8
  store i32 1, ptr %__i.addr.i, align 4
  store i32 5, ptr %__m.addr.i, align 4
  %this1.i = load ptr, ptr %this.addr.i, align 8
  %1 = load i32, ptr %__m.addr.i, align 4
  %2 = load i32, ptr %__i.addr.i, align 4
  store i32 %2, ptr %.atomictmp.i, align 4
  switch i32 %1, label %monotonic.i [
    i32 1, label %acquire.i
    i32 2, label %acquire.i
    i32 3, label %release.i
    i32 4, label %acqrel.i
    i32 5, label %seqcst.i
  ]

monotonic.i:                                      ; preds = %entry
  %3 = load i32, ptr %.atomictmp.i, align 4
  %4 = atomicrmw sub ptr %this1.i, i32 %3 monotonic, align 4
  store i32 %4, ptr %atomic-temp.i, align 4
  br label %_ZNSt13__atomic_baseIiE9fetch_subEiSt12memory_order.exit

acquire.i:                                        ; preds = %entry, %entry
  %5 = load i32, ptr %.atomictmp.i, align 4
  %6 = atomicrmw sub ptr %this1.i, i32 %5 acquire, align 4
  store i32 %6, ptr %atomic-temp.i, align 4
  br label %_ZNSt13__atomic_baseIiE9fetch_subEiSt12memory_order.exit

release.i:                                        ; preds = %entry
  %7 = load i32, ptr %.atomictmp.i, align 4
  %8 = atomicrmw sub ptr %this1.i, i32 %7 release, align 4
  store i32 %8, ptr %atomic-temp.i, align 4
  br label %_ZNSt13__atomic_baseIiE9fetch_subEiSt12memory_order.exit

acqrel.i:                                         ; preds = %entry
  %9 = load i32, ptr %.atomictmp.i, align 4
  %10 = atomicrmw sub ptr %this1.i, i32 %9 acq_rel, align 4
  store i32 %10, ptr %atomic-temp.i, align 4
  br label %_ZNSt13__atomic_baseIiE9fetch_subEiSt12memory_order.exit

seqcst.i:                                         ; preds = %entry
  %11 = load i32, ptr %.atomictmp.i, align 4
  %12 = atomicrmw sub ptr %this1.i, i32 %11 seq_cst, align 4
  store i32 %12, ptr %atomic-temp.i, align 4
  br label %_ZNSt13__atomic_baseIiE9fetch_subEiSt12memory_order.exit

_ZNSt13__atomic_baseIiE9fetch_subEiSt12memory_order.exit: ; preds = %seqcst.i, %acqrel.i, %release.i, %acquire.i, %monotonic.i
  %13 = load i32, ptr %atomic-temp.i, align 4
  ret i32 %13
}

; Function Attrs: mustprogress nounwind uwtable
define void @_ZN7rocksdb23CompactionPressureTokenD2Ev(ptr noundef nonnull align 8 dereferenceable(16) %this) unnamed_addr #1 align 2 {
entry:
  %this.addr = alloca ptr, align 8
  store ptr %this, ptr %this.addr, align 8
  %this1 = load ptr, ptr %this.addr, align 8
  store ptr getelementptr inbounds ({ [4 x ptr] }, ptr @_ZTVN7rocksdb23CompactionPressureTokenE, i32 0, i32 0, i32 2), ptr %this1, align 8
  %controller_ = getelementptr inbounds %"class.rocksdb::WriteControllerToken", ptr %this1, i32 0, i32 1
  %0 = load ptr, ptr %controller_, align 8
  %total_compaction_pressure_ = getelementptr inbounds %"class.rocksdb::WriteController", ptr %0, i32 0, i32 2
  %call = call noundef i32 @_ZNSt13__atomic_baseIiEmmEi(ptr noundef nonnull align 4 dereferenceable(4) %total_compaction_pressure_, i32 noundef 0) #6
  call void @_ZN7rocksdb20WriteControllerTokenD2Ev(ptr noundef nonnull align 8 dereferenceable(16) %this1) #6
  ret void
}