; Function Attrs: mustprogress nofree norecurse nounwind willreturn memory(readwrite, inaccessiblemem: none) uwtable
define void @_ZN7rocksdb23CompactionPressureTokenD2Ev(ptr nocapture noundef nonnull align 8 dereferenceable(16) %this) unnamed_addr #5 align 2 {
entry:
  store ptr getelementptr inbounds ({ [4 x ptr] }, ptr @_ZTVN7rocksdb23CompactionPressureTokenE, i64 0, i32 0, i64 2), ptr %this, align 8
  %controller_ = getelementptr inbounds i8, ptr %this, i64 8
  %0 = load ptr, ptr %controller_, align 8
  %total_compaction_pressure_ = getelementptr inbounds i8, ptr %0, i64 8
  %1 = atomicrmw sub ptr %total_compaction_pressure_, i32 1 seq_cst, align 4
  ret void
}